Certificate:
    Data:
        Version: 3 (0x2)
        Serial Number: 1 (0x1)
    Signature Algorithm: sha1WithRSAEncryption
        Issuer: C=US, ST=CO, L=Boulder, O=University of Colorado, OU=Computer Science Department, CN=pa4/emailAddress=yuan.sui@colorado.edu
        Validity
            Not Before: Dec 11 20:18:17 2012 GMT
            Not After : Dec 11 20:18:17 2013 GMT
        Subject: C=US, ST=CO, L=Boulder, O=University of Colorado, OU=Computer Science Department, CN=pa4/emailAddress=yuan.sui@colorado.edu
        Subject Public Key Info:
            Public Key Algorithm: rsaEncryption
                Public-Key: (1024 bit)
                Modulus:
                    00:f0:51:fd:bd:88:be:8e:9d:d2:23:9b:a5:37:e5:
                    93:46:5c:51:6a:07:63:69:ff:66:11:09:67:f6:62:
                    9b:67:07:bc:d1:38:5a:48:d7:a3:a0:f8:87:1c:26:
                    84:7c:ed:3e:ac:0a:fb:55:93:b6:e4:83:c3:52:1e:
                    27:de:58:bb:dd:33:c0:d5:0a:37:97:d6:7d:13:48:
                    16:42:e0:6d:56:48:85:bd:ed:41:63:a1:04:aa:92:
                    ee:ed:f1:44:cd:e1:04:84:30:18:86:62:91:04:fd:
                    f9:2f:6a:fb:10:ec:b7:f6:ea:2f:7b:7e:35:79:04:
                    bf:90:a6:9a:ec:a6:6d:d4:bb
                Exponent: 65537 (0x10001)
        X509v3 extensions:
            X509v3 Basic Constraints: 
                CA:FALSE
            Netscape Comment: 
                OpenSSL Generated Certificate
            X509v3 Subject Key Identifier: 
                22:36:84:3E:79:15:CB:D5:CC:68:E9:81:58:62:25:D2:F1:2F:DB:C3
            X509v3 Authority Key Identifier: 
                keyid:7D:60:44:C4:38:D8:6E:C4:68:C9:A6:62:11:8B:A3:68:6B:33:82:DB

    Signature Algorithm: sha1WithRSAEncryption
         36:91:c4:49:2d:76:16:a9:48:c1:db:11:b7:8e:67:c8:1a:0f:
         85:6a:d4:09:be:19:ad:cd:c4:88:03:b8:d5:0c:20:ec:07:17:
         9b:58:89:2e:69:a1:8a:2c:b4:77:b7:07:cc:d8:a0:8e:07:bd:
         41:f8:89:d7:11:cb:05:34:c3:9f:8c:0b:55:49:a9:9d:16:56:
         4f:80:26:cc:17:3d:a9:be:00:b5:25:24:ef:43:df:7e:d1:28:
         ce:01:a9:79:11:72:4c:5a:1a:df:63:cd:c2:85:95:6b:ad:4e:
         88:70:97:a5:e3:e7:10:c5:33:fb:71:ce:ac:dc:ac:e6:c1:3c:
         f4:f4
-----BEGIN CERTIFICATE-----
MIIDQTCCAqqgAwIBAgIBATANBgkqhkiG9w0BAQUFADCBpzELMAkGA1UEBhMCVVMx
CzAJBgNVBAgMAkNPMRAwDgYDVQQHDAdCb3VsZGVyMR8wHQYDVQQKDBZVbml2ZXJz
aXR5IG9mIENvbG9yYWRvMSQwIgYDVQQLDBtDb21wdXRlciBTY2llbmNlIERlcGFy
dG1lbnQxDDAKBgNVBAMMA3BhNDEkMCIGCSqGSIb3DQEJARYVeXVhbi5zdWlAY29s
b3JhZG8uZWR1MB4XDTEyMTIxMTIwMTgxN1oXDTEzMTIxMTIwMTgxN1owgacxCzAJ
BgNVBAYTAlVTMQswCQYDVQQIDAJDTzEQMA4GA1UEBwwHQm91bGRlcjEfMB0GA1UE
CgwWVW5pdmVyc2l0eSBvZiBDb2xvcmFkbzEkMCIGA1UECwwbQ29tcHV0ZXIgU2Np
ZW5jZSBEZXBhcnRtZW50MQwwCgYDVQQDDANwYTQxJDAiBgkqhkiG9w0BCQEWFXl1
YW4uc3VpQGNvbG9yYWRvLmVkdTCBnzANBgkqhkiG9w0BAQEFAAOBjQAwgYkCgYEA
8FH9vYi+jp3SI5ulN+WTRlxRagdjaf9mEQln9mKbZwe80ThaSNejoPiHHCaEfO0+
rAr7VZO25IPDUh4n3li73TPA1Qo3l9Z9E0gWQuBtVkiFve1BY6EEqpLu7fFEzeEE
hDAYhmKRBP35L2r7EOy39uove341eQS/kKaa7KZt1LsCAwEAAaN7MHkwCQYDVR0T
BAIwADAsBglghkgBhvhCAQ0EHxYdT3BlblNTTCBHZW5lcmF0ZWQgQ2VydGlmaWNh
dGUwHQYDVR0OBBYEFCI2hD55FcvVzGjpgVhiJdLxL9vDMB8GA1UdIwQYMBaAFH1g
RMQ42G7EaMmmYhGLo2hrM4LbMA0GCSqGSIb3DQEBBQUAA4GBADaRxEktdhapSMHb
EbeOZ8gaD4Vq1Am+Ga3NxIgDuNUMIOwHF5tYiS5poYostHe3B8zYoI4HvUH4idcR
ywU0w5+MC1VJqZ0WVk+AJswXPam+ALUlJO9D337RKM4BqXkRckxaGt9jzcKFlWut
Tohwl6Xj5xDFM/txzqzcrObBPPT0
-----END CERTIFICATE-----
